; Function Attrs: nofree nounwind uwtable
define internal noundef i32 @H5O__ginfo_debug(ptr readnone captures(none) %0, ptr noundef readonly captures(none) %1, ptr noundef captures(none) %2, i32 noundef %3, i32 noundef %4) #3 {
  %6 = load i8, ptr @H5O_init_g, align 1, !tbaa !3, !range !7, !noundef !8
  %7 = trunc nuw i8 %6 to i1
  %8 = load i8, ptr @H5_libterm_g, align 1, !range !7
  %9 = trunc nuw i8 %8 to i1
  %10 = xor i1 %9, true
  %11 = select i1 %7, i1 true, i1 %10
  br i1 %11, label %12, label %29, !prof !9

12:                                               ; preds = %5
  %13 = getelementptr inbounds nuw i8, ptr %1, i64 6
  %14 = load i16, ptr %13, align 2, !tbaa !18
  %15 = zext i16 %14 to i32
  %16 = tail call i32 (ptr, ptr, ...) @fprintf(ptr noundef %2, ptr noundef nonnull @.str.8, i32 noundef %3, ptr noundef nonnull @.str.9, i32 noundef %4, ptr noundef nonnull @.str.10, i32 noundef %15) #7
  %17 = getelementptr inbounds nuw i8, ptr %1, i64 8
  %18 = load i16, ptr %17, align 4, !tbaa !19
  %19 = zext i16 %18 to i32
  %20 = tail call i32 (ptr, ptr, ...) @fprintf(ptr noundef %2, ptr noundef nonnull @.str.8, i32 noundef %3, ptr noundef nonnull @.str.9, i32 noundef %4, ptr noundef nonnull @.str.11, i32 noundef %19) #7
  %21 = getelementptr inbounds nuw i8, ptr %1, i64 12
  %22 = load i16, ptr %21, align 4, !tbaa !20
  %23 = zext i16 %22 to i32
  %24 = tail call i32 (ptr, ptr, ...) @fprintf(ptr noundef %2, ptr noundef nonnull @.str.8, i32 noundef %3, ptr noundef nonnull @.str.9, i32 noundef %4, ptr noundef nonnull @.str.12, i32 noundef %23) #7
  %25 = getelementptr inbounds nuw i8, ptr %1, i64 14
  %26 = load i16, ptr %25, align 2, !tbaa !21
  %27 = zext i16 %26 to i32
  %28 = tail call i32 (ptr, ptr, ...) @fprintf(ptr noundef %2, ptr noundef nonnull @.str.8, i32 noundef %3, ptr noundef nonnull @.str.9, i32 noundef %4, ptr noundef nonnull @.str.13, i32 noundef %27) #7
  br label %29

29:                                               ; preds = %12, %5
  ret i32 0
}